target datalayout = "e-m:e-p270:32:32-p271:32:32-p272:64:64-i64:64-i128:128-f80:128-n8:16:32:64-S128"
target triple = "x86_64-pc-linux-gnu"

%struct.ForEachState = type { ptr, i32 }
%struct.RelOptInfo = type { i32, i32, ptr, double, i8, i8, i8, ptr, ptr, ptr, ptr, ptr, ptr, ptr, ptr, ptr, ptr, i32, i32, i32, i16, i16, ptr, ptr, ptr, ptr, ptr, ptr, ptr, ptr, i32, double, double, ptr, ptr, ptr, i32, i32, i32, i32, i8, ptr, ptr, ptr, ptr, ptr, %struct.QualCost, i32, ptr, i8, i8, ptr, ptr, ptr, ptr, i32, ptr, i8, ptr, ptr, ptr, ptr, ptr, ptr }
%struct.QualCost = type { double, double }
%struct.List = type { i32, i32, i32, ptr, [0 x %union.ListCell] }
%union.ListCell = type { ptr }
%struct.PlannerInfo = type { i32, ptr, ptr, i32, ptr, ptr, ptr, ptr, i32, ptr, ptr, ptr, ptr, ptr, ptr, ptr, ptr, i32, ptr, ptr, ptr, ptr, ptr, i8, ptr, ptr, ptr, ptr, ptr, i32, ptr, ptr, ptr, ptr, ptr, ptr, ptr, i32, ptr, ptr, ptr, i32, ptr, ptr, ptr, ptr, ptr, ptr, [8 x ptr], [8 x ptr], ptr, ptr, ptr, ptr, ptr, ptr, ptr, double, double, double, i32, i8, i8, i8, i8, i8, i8, i8, i32, ptr, ptr, i32, i8, i8, i32, ptr, ptr, ptr, ptr, ptr, ptr, i8, ptr }
%struct.SpecialJoinInfo = type { i32, ptr, ptr, ptr, ptr, i32, i32, ptr, ptr, ptr, ptr, i8, i8, i8, ptr, ptr }

; Function Attrs: nounwind uwtable
define internal double @approximate_joinrel_size(ptr noundef %0, ptr noundef %1) #0 {
  %3 = alloca ptr, align 8
  %4 = alloca ptr, align 8
  %5 = alloca double, align 8
  %6 = alloca i32, align 4
  %7 = alloca ptr, align 8
  %8 = alloca i32, align 4
  store ptr %0, ptr %3, align 8
  store ptr %1, ptr %4, align 8
  call void @llvm.lifetime.start.p0(i64 8, ptr %5) #7
  store double 1.000000e+00, ptr %5, align 8
  call void @llvm.lifetime.start.p0(i64 4, ptr %6) #7
  store i32 -1, ptr %6, align 4
  br label %9

9:                                                ; preds = %44, %42, %2
  %10 = load ptr, ptr %4, align 8
  %11 = load i32, ptr %6, align 4
  %12 = call i32 @bms_next_member(ptr noundef %10, i32 noundef %11)
  store i32 %12, ptr %6, align 4
  %13 = icmp sge i32 %12, 0
  br i1 %13, label %14, label %45

14:                                               ; preds = %9
  call void @llvm.lifetime.start.p0(i64 8, ptr %7) #7
  %15 = load i32, ptr %6, align 4
  %16 = load ptr, ptr %3, align 8
  %17 = getelementptr inbounds nuw %struct.PlannerInfo, ptr %16, i32 0, i32 8
  %18 = load i32, ptr %17, align 8
  %19 = icmp sge i32 %15, %18
  br i1 %19, label %20, label %21

20:                                               ; preds = %14
  store i32 2, ptr %8, align 4
  br label %42, !llvm.loop !77

21:                                               ; preds = %14
  %22 = load ptr, ptr %3, align 8
  %23 = getelementptr inbounds nuw %struct.PlannerInfo, ptr %22, i32 0, i32 7
  %24 = load ptr, ptr %23, align 8
  %25 = load i32, ptr %6, align 4
  %26 = sext i32 %25 to i64
  %27 = getelementptr inbounds ptr, ptr %24, i64 %26
  %28 = load ptr, ptr %27, align 8
  store ptr %28, ptr %7, align 8
  %29 = load ptr, ptr %7, align 8
  %30 = icmp eq ptr %29, null
  br i1 %30, label %31, label %32

31:                                               ; preds = %21
  store i32 2, ptr %8, align 4
  br label %42, !llvm.loop !77

32:                                               ; preds = %21
  %33 = load ptr, ptr %7, align 8
  %34 = call zeroext i1 @is_dummy_rel(ptr noundef %33)
  br i1 %34, label %35, label %36

35:                                               ; preds = %32
  store i32 2, ptr %8, align 4
  br label %42, !llvm.loop !77

36:                                               ; preds = %32
  %37 = load ptr, ptr %7, align 8
  %38 = getelementptr inbounds nuw %struct.RelOptInfo, ptr %37, i32 0, i32 3
  %39 = load double, ptr %38, align 8
  %40 = load double, ptr %5, align 8
  %41 = fmul double %40, %39
  store double %41, ptr %5, align 8
  store i32 0, ptr %8, align 4
  br label %42

42:                                               ; preds = %36, %35, %31, %20
  call void @llvm.lifetime.end.p0(i64 8, ptr %7) #7
  %43 = load i32, ptr %8, align 4
  switch i32 %43, label %47 [
    i32 0, label %44
    i32 2, label %9
  ]

44:                                               ; preds = %42
  br label %9, !llvm.loop !77

45:                                               ; preds = %9
  %46 = load double, ptr %5, align 8
  store i32 1, ptr %8, align 4
  call void @llvm.lifetime.end.p0(i64 4, ptr %6) #7
  call void @llvm.lifetime.end.p0(i64 8, ptr %5) #7
  ret double %46

47:                                               ; preds = %42
  unreachable
}

; Function Attrs: nounwind uwtable
define internal double @adjust_rowcount_for_semijoins(ptr noundef %0, i32 noundef %1, i32 noundef %2, double noundef %3) #0 {
  %5 = alloca ptr, align 8
  %6 = alloca i32, align 4
  %7 = alloca i32, align 4
  %8 = alloca double, align 8
  %9 = alloca ptr, align 8
  %10 = alloca %struct.ForEachState, align 8
  %11 = alloca ptr, align 8
  %12 = alloca double, align 8
  %13 = alloca double, align 8
  store ptr %0, ptr %5, align 8
  store i32 %1, ptr %6, align 4
  store i32 %2, ptr %7, align 4
  store double %3, ptr %8, align 8
  call void @llvm.lifetime.start.p0(i64 8, ptr %9) #7
  call void @llvm.lifetime.start.p0(i64 16, ptr %10) #7
  %14 = getelementptr inbounds nuw %struct.ForEachState, ptr %10, i32 0, i32 0
  %15 = load ptr, ptr %5, align 8
  %16 = getelementptr inbounds nuw %struct.PlannerInfo, ptr %15, i32 0, i32 28
  %17 = load ptr, ptr %16, align 8
  store ptr %17, ptr %14, align 8
  %18 = getelementptr inbounds nuw %struct.ForEachState, ptr %10, i32 0, i32 1
  store i32 0, ptr %18, align 8
  %19 = getelementptr i8, ptr %10, i64 12
  call void @llvm.memset.p0.i64(ptr align 4 %19, i8 0, i64 4, i1 false)
  br label %20

20:                                               ; preds = %84, %4
  %21 = getelementptr inbounds nuw %struct.ForEachState, ptr %10, i32 0, i32 0
  %22 = load ptr, ptr %21, align 8
  %23 = icmp ne ptr %22, null
  br i1 %23, label %24, label %41

24:                                               ; preds = %20
  %25 = getelementptr inbounds nuw %struct.ForEachState, ptr %10, i32 0, i32 1
  %26 = load i32, ptr %25, align 8
  %27 = getelementptr inbounds nuw %struct.ForEachState, ptr %10, i32 0, i32 0
  %28 = load ptr, ptr %27, align 8
  %29 = getelementptr inbounds nuw %struct.List, ptr %28, i32 0, i32 1
  %30 = load i32, ptr %29, align 4
  %31 = icmp slt i32 %26, %30
  br i1 %31, label %32, label %41

32:                                               ; preds = %24
  %33 = getelementptr inbounds nuw %struct.ForEachState, ptr %10, i32 0, i32 0
  %34 = load ptr, ptr %33, align 8
  %35 = getelementptr inbounds nuw %struct.List, ptr %34, i32 0, i32 3
  %36 = load ptr, ptr %35, align 8
  %37 = getelementptr inbounds nuw %struct.ForEachState, ptr %10, i32 0, i32 1
  %38 = load i32, ptr %37, align 8
  %39 = sext i32 %38 to i64
  %40 = getelementptr inbounds %union.ListCell, ptr %36, i64 %39
  store ptr %40, ptr %9, align 8
  br label %42

41:                                               ; preds = %24, %20
  store ptr null, ptr %9, align 8
  br label %42

42:                                               ; preds = %41, %32
  %43 = phi i32 [ 1, %32 ], [ 0, %41 ]
  %44 = icmp ne i32 %43, 0
  br i1 %44, label %46, label %45

45:                                               ; preds = %42
  call void @llvm.lifetime.end.p0(i64 16, ptr %10) #7
  br label %88

46:                                               ; preds = %42
  call void @llvm.lifetime.start.p0(i64 8, ptr %11) #7
  %47 = load ptr, ptr %9, align 8
  %48 = load ptr, ptr %47, align 8
  store ptr %48, ptr %11, align 8
  %49 = load ptr, ptr %11, align 8
  %50 = getelementptr inbounds nuw %struct.SpecialJoinInfo, ptr %49, i32 0, i32 5
  %51 = load i32, ptr %50, align 8
  %52 = icmp eq i32 %51, 4
  br i1 %52, label %53, label %83

53:                                               ; preds = %46
  %54 = load i32, ptr %6, align 4
  %55 = load ptr, ptr %11, align 8
  %56 = getelementptr inbounds nuw %struct.SpecialJoinInfo, ptr %55, i32 0, i32 3
  %57 = load ptr, ptr %56, align 8
  %58 = call zeroext i1 @bms_is_member(i32 noundef %54, ptr noundef %57)
  br i1 %58, label %59, label %83

59:                                               ; preds = %53
  %60 = load i32, ptr %7, align 4
  %61 = load ptr, ptr %11, align 8
  %62 = getelementptr inbounds nuw %struct.SpecialJoinInfo, ptr %61, i32 0, i32 4
  %63 = load ptr, ptr %62, align 8
  %64 = call zeroext i1 @bms_is_member(i32 noundef %60, ptr noundef %63)
  br i1 %64, label %65, label %83

65:                                               ; preds = %59
  call void @llvm.lifetime.start.p0(i64 8, ptr %12) #7
  call void @llvm.lifetime.start.p0(i64 8, ptr %13) #7
  %66 = load ptr, ptr %5, align 8
  %67 = load ptr, ptr %11, align 8
  %68 = getelementptr inbounds nuw %struct.SpecialJoinInfo, ptr %67, i32 0, i32 4
  %69 = load ptr, ptr %68, align 8
  %70 = call double @approximate_joinrel_size(ptr noundef %66, ptr noundef %69)
  store double %70, ptr %12, align 8
  %71 = load ptr, ptr %5, align 8
  %72 = load ptr, ptr %11, align 8
  %73 = getelementptr inbounds nuw %struct.SpecialJoinInfo, ptr %72, i32 0, i32 15
  %74 = load ptr, ptr %73, align 8
  %75 = load double, ptr %12, align 8
  %76 = call double @estimate_num_groups(ptr noundef %71, ptr noundef %74, double noundef %75, ptr noundef null, ptr noundef null)
  store double %76, ptr %13, align 8
  %77 = load double, ptr %8, align 8
  %78 = load double, ptr %13, align 8
  %79 = fcmp ogt double %77, %78
  br i1 %79, label %80, label %82

80:                                               ; preds = %65
  %81 = load double, ptr %13, align 8
  store double %81, ptr %8, align 8
  br label %82

82:                                               ; preds = %80, %65
  call void @llvm.lifetime.end.p0(i64 8, ptr %13) #7
  call void @llvm.lifetime.end.p0(i64 8, ptr %12) #7
  br label %83

83:                                               ; preds = %82, %59, %53, %46
  call void @llvm.lifetime.end.p0(i64 8, ptr %11) #7
  br label %84

84:                                               ; preds = %83
  %85 = getelementptr inbounds nuw %struct.ForEachState, ptr %10, i32 0, i32 1
  %86 = load i32, ptr %85, align 8
  %87 = add i32 %86, 1
  store i32 %87, ptr %85, align 8
  br label %20, !llvm.loop !76

88:                                               ; preds = %45
  %89 = load double, ptr %8, align 8
  call void @llvm.lifetime.end.p0(i64 8, ptr %9) #7
  ret double %89
}

; Function Attrs: nounwind uwtable
define internal double @get_loop_count(ptr noundef %0, i32 noundef %1, ptr noundef %2) #0 {
  %4 = alloca double, align 8
  %5 = alloca ptr, align 8
  %6 = alloca i32, align 4
  %7 = alloca ptr, align 8
  %8 = alloca double, align 8
  %9 = alloca i32, align 4
  %10 = alloca i32, align 4
  %11 = alloca ptr, align 8
  %12 = alloca double, align 8
  store ptr %0, ptr %5, align 8
  store i32 %1, ptr %6, align 4
  store ptr %2, ptr %7, align 8
  call void @llvm.lifetime.start.p0(i64 8, ptr %8) #7
  call void @llvm.lifetime.start.p0(i64 4, ptr %9) #7
  %13 = load ptr, ptr %7, align 8
  %14 = icmp eq ptr %13, null
  br i1 %14, label %15, label %16

15:                                               ; preds = %3
  store double 1.000000e+00, ptr %4, align 8
  store i32 1, ptr %10, align 4
  br label %72

16:                                               ; preds = %3
  store double 0.000000e+00, ptr %8, align 8
  store i32 -1, ptr %9, align 4
  br label %17

17:                                               ; preds = %63, %61, %16
  %18 = load ptr, ptr %7, align 8
  %19 = load i32, ptr %9, align 4
  %20 = call i32 @bms_next_member(ptr noundef %18, i32 noundef %19)
  store i32 %20, ptr %9, align 4
  %21 = icmp sge i32 %20, 0
  br i1 %21, label %22, label %64

22:                                               ; preds = %17
  call void @llvm.lifetime.start.p0(i64 8, ptr %11) #7
  call void @llvm.lifetime.start.p0(i64 8, ptr %12) #7
  %23 = load i32, ptr %9, align 4
  %24 = load ptr, ptr %5, align 8
  %25 = getelementptr inbounds nuw %struct.PlannerInfo, ptr %24, i32 0, i32 8
  %26 = load i32, ptr %25, align 8
  %27 = icmp sge i32 %23, %26
  br i1 %27, label %28, label %29

28:                                               ; preds = %22
  store i32 2, ptr %10, align 4
  br label %61, !llvm.loop !25

29:                                               ; preds = %22
  %30 = load ptr, ptr %5, align 8
  %31 = getelementptr inbounds nuw %struct.PlannerInfo, ptr %30, i32 0, i32 7
  %32 = load ptr, ptr %31, align 8
  %33 = load i32, ptr %9, align 4
  %34 = sext i32 %33 to i64
  %35 = getelementptr inbounds ptr, ptr %32, i64 %34
  %36 = load ptr, ptr %35, align 8
  store ptr %36, ptr %11, align 8
  %37 = load ptr, ptr %11, align 8
  %38 = icmp eq ptr %37, null
  br i1 %38, label %39, label %40

39:                                               ; preds = %29
  store i32 2, ptr %10, align 4
  br label %61, !llvm.loop !25

40:                                               ; preds = %29
  %41 = load ptr, ptr %11, align 8
  %42 = call zeroext i1 @is_dummy_rel(ptr noundef %41)
  br i1 %42, label %43, label %44

43:                                               ; preds = %40
  store i32 2, ptr %10, align 4
  br label %61, !llvm.loop !25

44:                                               ; preds = %40
  %45 = load ptr, ptr %5, align 8
  %46 = load i32, ptr %6, align 4
  %47 = load i32, ptr %9, align 4
  %48 = load ptr, ptr %11, align 8
  %49 = getelementptr inbounds nuw %struct.RelOptInfo, ptr %48, i32 0, i32 3
  %50 = load double, ptr %49, align 8
  %51 = call double @adjust_rowcount_for_semijoins(ptr noundef %45, i32 noundef %46, i32 noundef %47, double noundef %50)
  store double %51, ptr %12, align 8
  %52 = load double, ptr %8, align 8
  %53 = fcmp oeq double %52, 0.000000e+00
  br i1 %53, label %58, label %54

54:                                               ; preds = %44
  %55 = load double, ptr %8, align 8
  %56 = load double, ptr %12, align 8
  %57 = fcmp ogt double %55, %56
  br i1 %57, label %58, label %60

58:                                               ; preds = %54, %44
  %59 = load double, ptr %12, align 8
  store double %59, ptr %8, align 8
  br label %60

60:                                               ; preds = %58, %54
  store i32 0, ptr %10, align 4
  br label %61

61:                                               ; preds = %60, %43, %39, %28
  call void @llvm.lifetime.end.p0(i64 8, ptr %12) #7
  call void @llvm.lifetime.end.p0(i64 8, ptr %11) #7
  %62 = load i32, ptr %10, align 4
  switch i32 %62, label %74 [
    i32 0, label %63
    i32 2, label %17
  ]

63:                                               ; preds = %61
  br label %17, !llvm.loop !25

64:                                               ; preds = %17
  %65 = load double, ptr %8, align 8
  %66 = fcmp ogt double %65, 0.000000e+00
  br i1 %66, label %67, label %69

67:                                               ; preds = %64
  %68 = load double, ptr %8, align 8
  br label %70

69:                                               ; preds = %64
  br label %70

70:                                               ; preds = %69, %67
  %71 = phi double [ %68, %67 ], [ 1.000000e+00, %69 ]
  store double %71, ptr %4, align 8
  store i32 1, ptr %10, align 4
  br label %72

72:                                               ; preds = %70, %15
  call void @llvm.lifetime.end.p0(i64 4, ptr %9) #7
  call void @llvm.lifetime.end.p0(i64 8, ptr %8) #7
  %73 = load double, ptr %4, align 8
  ret double %73

74:                                               ; preds = %61
  unreachable
}