; Function Attrs: nounwind uwtable
define internal fastcc double @get_loop_count(ptr noundef %0, i32 noundef %1, ptr noundef %2) unnamed_addr #0 {
  %4 = icmp eq ptr %2, null
  br i1 %4, label %79, label %.preheader

.preheader:                                       ; preds = %3
  %5 = tail call i32 @bms_next_member(ptr noundef nonnull %2, i32 noundef -1) #8
  %6 = icmp sgt i32 %5, -1
  br i1 %6, label %.lr.ph27, label %._crit_edge

.lr.ph27:                                         ; preds = %.preheader
  %7 = getelementptr inbounds nuw i8, ptr %0, i64 64
  %8 = getelementptr inbounds nuw i8, ptr %0, i64 56
  %9 = getelementptr inbounds nuw i8, ptr %0, i64 224
  br label %10

10:                                               ; preds = %.lr.ph27, %74
  %11 = phi i32 [ %5, %.lr.ph27 ], [ %75, %74 ]
  %.01926 = phi double [ 0.000000e+00, %.lr.ph27 ], [ %.1, %74 ]
  %12 = load i32, ptr %7, align 8
  %.not = icmp slt i32 %11, %12
  br i1 %.not, label %13, label %74, !llvm.loop !18

13:                                               ; preds = %10
  %14 = load ptr, ptr %8, align 8
  %15 = zext nneg i32 %11 to i64
  %16 = getelementptr inbounds nuw ptr, ptr %14, i64 %15
  %17 = load ptr, ptr %16, align 8
  %18 = icmp eq ptr %17, null
  br i1 %18, label %74, label %19, !llvm.loop !18

19:                                               ; preds = %13
  %20 = tail call zeroext i1 @is_dummy_rel(ptr noundef nonnull %17) #8
  br i1 %20, label %74, label %21, !llvm.loop !18

21:                                               ; preds = %19
  %22 = getelementptr inbounds nuw i8, ptr %17, i64 16
  %23 = load double, ptr %22, align 8
  %24 = load ptr, ptr %9, align 8
  %25 = getelementptr inbounds nuw i8, ptr %24, i64 4
  %.not.i = icmp eq ptr %24, null
  br i1 %.not.i, label %adjust_rowcount_for_semijoins.exit, label %.lr.ph.i

.lr.ph.i:                                         ; preds = %21
  %26 = getelementptr inbounds nuw i8, ptr %24, i64 16
  %27 = load i32, ptr %25, align 4
  %28 = icmp sgt i32 %27, 0
  br i1 %28, label %.lr.ph, label %adjust_rowcount_for_semijoins.exit

.lr.ph:                                           ; preds = %.lr.ph.i, %68
  %.026.i25 = phi double [ %.1.i, %68 ], [ %23, %.lr.ph.i ]
  %indvars.iv.i24 = phi i64 [ %indvars.iv.next.i, %68 ], [ 0, %.lr.ph.i ]
  %29 = load ptr, ptr %26, align 8
  %30 = getelementptr inbounds nuw %union.ListCell, ptr %29, i64 %indvars.iv.i24
  %31 = load ptr, ptr %30, align 8
  %32 = getelementptr inbounds nuw i8, ptr %31, i64 40
  %33 = load i32, ptr %32, align 8
  %34 = icmp eq i32 %33, 4
  br i1 %34, label %35, label %68

35:                                               ; preds = %.lr.ph
  %36 = getelementptr inbounds nuw i8, ptr %31, i64 24
  %37 = load ptr, ptr %36, align 8
  %38 = tail call zeroext i1 @bms_is_member(i32 noundef %1, ptr noundef %37) #8
  br i1 %38, label %39, label %68

39:                                               ; preds = %35
  %40 = getelementptr inbounds nuw i8, ptr %31, i64 32
  %41 = load ptr, ptr %40, align 8
  %42 = tail call zeroext i1 @bms_is_member(i32 noundef range(i32 0, -2147483648) %11, ptr noundef %41) #8
  br i1 %42, label %43, label %68

43:                                               ; preds = %39
  %44 = load ptr, ptr %40, align 8
  %45 = tail call i32 @bms_next_member(ptr noundef %44, i32 noundef -1) #8
  %46 = icmp sgt i32 %45, -1
  br i1 %46, label %.lr.ph.i.i, label %approximate_joinrel_size.exit.i

.lr.ph.i.i:                                       ; preds = %43, %61
  %47 = phi i32 [ %62, %61 ], [ %45, %43 ]
  %.013.i.i = phi double [ %.1.i.i, %61 ], [ 1.000000e+00, %43 ]
  %48 = load i32, ptr %7, align 8
  %.not.i.i = icmp slt i32 %47, %48
  br i1 %.not.i.i, label %49, label %61, !llvm.loop !19

49:                                               ; preds = %.lr.ph.i.i
  %50 = load ptr, ptr %8, align 8
  %51 = zext nneg i32 %47 to i64
  %52 = getelementptr inbounds nuw ptr, ptr %50, i64 %51
  %53 = load ptr, ptr %52, align 8
  %54 = icmp eq ptr %53, null
  br i1 %54, label %61, label %55, !llvm.loop !19

55:                                               ; preds = %49
  %56 = tail call zeroext i1 @is_dummy_rel(ptr noundef nonnull %53) #8
  br i1 %56, label %61, label %57, !llvm.loop !19

57:                                               ; preds = %55
  %58 = getelementptr inbounds nuw i8, ptr %53, i64 16
  %59 = load double, ptr %58, align 8
  %60 = fmul double %.013.i.i, %59
  br label %61

61:                                               ; preds = %57, %55, %49, %.lr.ph.i.i
  %.1.i.i = phi double [ %60, %57 ], [ %.013.i.i, %.lr.ph.i.i ], [ %.013.i.i, %49 ], [ %.013.i.i, %55 ]
  %62 = tail call i32 @bms_next_member(ptr noundef %44, i32 noundef %47) #8
  %63 = icmp sgt i32 %62, -1
  br i1 %63, label %.lr.ph.i.i, label %approximate_joinrel_size.exit.i

approximate_joinrel_size.exit.i:                  ; preds = %61, %43
  %.0.lcssa.i.i = phi double [ 1.000000e+00, %43 ], [ %.1.i.i, %61 ]
  %64 = getelementptr inbounds nuw i8, ptr %31, i64 96
  %65 = load ptr, ptr %64, align 8
  %66 = tail call double @estimate_num_groups(ptr noundef %0, ptr noundef %65, double noundef %.0.lcssa.i.i, ptr noundef null, ptr noundef null) #8
  %67 = fcmp ogt double %.026.i25, %66
  %.2.i = select i1 %67, double %66, double %.026.i25
  br label %68

68:                                               ; preds = %approximate_joinrel_size.exit.i, %39, %35, %.lr.ph
  %.1.i = phi double [ %.2.i, %approximate_joinrel_size.exit.i ], [ %.026.i25, %39 ], [ %.026.i25, %35 ], [ %.026.i25, %.lr.ph ]
  %indvars.iv.next.i = add nuw nsw i64 %indvars.iv.i24, 1
  %69 = load i32, ptr %25, align 4
  %70 = sext i32 %69 to i64
  %71 = icmp slt i64 %indvars.iv.next.i, %70
  br i1 %71, label %.lr.ph, label %adjust_rowcount_for_semijoins.exit

adjust_rowcount_for_semijoins.exit:               ; preds = %68, %.lr.ph.i, %21
  %.0.lcssa.i = phi double [ %23, %21 ], [ %23, %.lr.ph.i ], [ %.1.i, %68 ]
  %72 = fcmp oeq double %.01926, 0.000000e+00
  %73 = fcmp ogt double %.01926, %.0.lcssa.i
  %or.cond = select i1 %72, i1 true, i1 %73
  %.2 = select i1 %or.cond, double %.0.lcssa.i, double %.01926
  br label %74

74:                                               ; preds = %19, %13, %10, %adjust_rowcount_for_semijoins.exit
  %.1 = phi double [ %.2, %adjust_rowcount_for_semijoins.exit ], [ %.01926, %10 ], [ %.01926, %13 ], [ %.01926, %19 ]
  %75 = tail call i32 @bms_next_member(ptr noundef nonnull %2, i32 noundef %11) #8
  %76 = icmp sgt i32 %75, -1
  br i1 %76, label %10, label %._crit_edge

._crit_edge:                                      ; preds = %74, %.preheader
  %.019.lcssa = phi double [ 0.000000e+00, %.preheader ], [ %.1, %74 ]
  %77 = fcmp ogt double %.019.lcssa, 0.000000e+00
  %78 = select i1 %77, double %.019.lcssa, double 1.000000e+00
  br label %79

79:                                               ; preds = %3, %._crit_edge
  %.0 = phi double [ %78, %._crit_edge ], [ 1.000000e+00, %3 ]
  ret double %.0
}